target datalayout = "e-m:e-p270:32:32-p271:32:32-p272:64:64-i64:64-i128:128-f80:128-n8:16:32:64-S128"
target triple = "x86_64-pc-linux-gnu"

%struct.URLContext = type { ptr, ptr, ptr, ptr, i32, i32, i32, i32, %struct.AVIOInterruptCB, i64, ptr, ptr, i32 }
%struct.AVIOInterruptCB = type { ptr, ptr }
%struct.HTTPContext = type { ptr, ptr, [8192 x i8], ptr, ptr, i32, i32, i64, i32, i64, i64, i64, ptr, ptr, %struct.HTTPAuthState, %struct.HTTPAuthState, ptr, ptr, ptr, ptr, ptr, ptr, ptr, i32, i32, i32, i32, i32, i32, ptr, i32, i32, i32, ptr, ptr, i32, i64, i64, ptr, ptr, ptr, i32, %struct.z_stream_s, ptr, ptr, i32, ptr, i32, i32, i32, i32, i32, ptr, i32, ptr, i32, i32, i32, i32, i32, i64, ptr, ptr, i64, i32, i32, i32, i32 }
%struct.HTTPAuthState = type { i32, [200 x i8], %struct.DigestParams, i32 }
%struct.DigestParams = type { [300 x i8], [10 x i8], [30 x i8], [300 x i8], [10 x i8], i32 }
%struct.z_stream_s = type { ptr, i32, i64, ptr, i32, i64, ptr, ptr, ptr, ptr, ptr, i32, i64, i64 }

@.str.101 = private unnamed_addr constant [5 x i8] c"gzip\00", align 1
@.str.102 = private unnamed_addr constant [8 x i8] c"deflate\00", align 1
@.str.103 = private unnamed_addr constant [4 x i8] c"1.3\00", align 1
@.str.104 = private unnamed_addr constant [38 x i8] c"Error during zlib initialisation: %s\0A\00", align 1
@.str.105 = private unnamed_addr constant [46 x i8] c"Your zlib was compiled without gzip support.\0A\00", align 1
@.str.106 = private unnamed_addr constant [9 x i8] c"identity\00", align 1
@.str.107 = private unnamed_addr constant [28 x i8] c"Unknown content coding: %s\0A\00", align 1

; Function Attrs: nounwind uwtable
define internal i32 @parse_content_encoding(ptr noundef %0, ptr noundef %1) #0 {
  %3 = alloca i32, align 4
  %4 = alloca ptr, align 8
  %5 = alloca ptr, align 8
  %6 = alloca ptr, align 8
  %7 = alloca i32, align 4
  store ptr %0, ptr %4, align 8, !tbaa !4
  store ptr %1, ptr %5, align 8, !tbaa !17
  %8 = load ptr, ptr %5, align 8, !tbaa !17
  %9 = call i32 @av_strncasecmp(ptr noundef %8, ptr noundef @.str.101, i64 noundef 4)
  %10 = icmp ne i32 %9, 0
  br i1 %10, label %11, label %15

11:                                               ; preds = %2
  %12 = load ptr, ptr %5, align 8, !tbaa !17
  %13 = call i32 @av_strncasecmp(ptr noundef %12, ptr noundef @.str.102, i64 noundef 7)
  %14 = icmp ne i32 %13, 0
  br i1 %14, label %44, label %15

15:                                               ; preds = %11, %2
  call void @llvm.lifetime.start.p0(i64 8, ptr %6) #11
  %16 = load ptr, ptr %4, align 8, !tbaa !4
  %17 = getelementptr inbounds nuw %struct.URLContext, ptr %16, i32 0, i32 2
  %18 = load ptr, ptr %17, align 8, !tbaa !9
  store ptr %18, ptr %6, align 8, !tbaa !21
  %19 = load ptr, ptr %6, align 8, !tbaa !21
  %20 = getelementptr inbounds nuw %struct.HTTPContext, ptr %19, i32 0, i32 41
  store i32 1, ptr %20, align 8, !tbaa !104
  %21 = load ptr, ptr %6, align 8, !tbaa !21
  %22 = getelementptr inbounds nuw %struct.HTTPContext, ptr %21, i32 0, i32 42
  %23 = call i32 @inflateEnd(ptr noundef %22)
  %24 = load ptr, ptr %6, align 8, !tbaa !21
  %25 = getelementptr inbounds nuw %struct.HTTPContext, ptr %24, i32 0, i32 42
  %26 = call i32 @inflateInit2_(ptr noundef %25, i32 noundef 47, ptr noundef @.str.103, i32 noundef 112)
  %27 = icmp ne i32 %26, 0
  br i1 %27, label %28, label %34

28:                                               ; preds = %15
  %29 = load ptr, ptr %4, align 8, !tbaa !4
  %30 = load ptr, ptr %6, align 8, !tbaa !21
  %31 = getelementptr inbounds nuw %struct.HTTPContext, ptr %30, i32 0, i32 42
  %32 = getelementptr inbounds nuw %struct.z_stream_s, ptr %31, i32 0, i32 6
  %33 = load ptr, ptr %32, align 8, !tbaa !143
  call void (ptr, i32, ptr, ...) @av_log(ptr noundef %29, i32 noundef 24, ptr noundef @.str.104, ptr noundef %33)
  store i32 -38, ptr %3, align 4
  store i32 1, ptr %7, align 4
  br label %41

34:                                               ; preds = %15
  %35 = call i64 @zlibCompileFlags()
  %36 = and i64 %35, 131072
  %37 = icmp ne i64 %36, 0
  br i1 %37, label %38, label %40

38:                                               ; preds = %34
  %39 = load ptr, ptr %4, align 8, !tbaa !4
  call void (ptr, i32, ptr, ...) @av_log(ptr noundef %39, i32 noundef 24, ptr noundef @.str.105)
  store i32 -38, ptr %3, align 4
  store i32 1, ptr %7, align 4
  br label %41

40:                                               ; preds = %34
  store i32 0, ptr %7, align 4
  br label %41

41:                                               ; preds = %40, %38, %28
  call void @llvm.lifetime.end.p0(i64 8, ptr %6) #11
  %42 = load i32, ptr %7, align 4
  switch i32 %42, label %56 [
    i32 0, label %43
    i32 1, label %54
  ]

43:                                               ; preds = %41
  br label %53

44:                                               ; preds = %11
  %45 = load ptr, ptr %5, align 8, !tbaa !17
  %46 = call i32 @av_strncasecmp(ptr noundef %45, ptr noundef @.str.106, i64 noundef 8)
  %47 = icmp ne i32 %46, 0
  br i1 %47, label %49, label %48

48:                                               ; preds = %44
  br label %52

49:                                               ; preds = %44
  %50 = load ptr, ptr %4, align 8, !tbaa !4
  %51 = load ptr, ptr %5, align 8, !tbaa !17
  call void (ptr, i32, ptr, ...) @av_log(ptr noundef %50, i32 noundef 24, ptr noundef @.str.107, ptr noundef %51)
  br label %52

52:                                               ; preds = %49, %48
  br label %53

53:                                               ; preds = %52, %43
  store i32 0, ptr %3, align 4
  br label %54

54:                                               ; preds = %53, %41
  %55 = load i32, ptr %3, align 4
  ret i32 %55

56:                                               ; preds = %41
  unreachable
}