; Function Attrs: nounwind uwtable
define internal fastcc range(i32 -38, 1) i32 @parse_content_encoding(ptr noundef %0, ptr noundef %1) unnamed_addr #2 {
  %3 = tail call i32 @av_strncasecmp(ptr noundef %1, ptr noundef nonnull @.str.101, i64 noundef 4) #15
  %.not = icmp eq i32 %3, 0
  br i1 %.not, label %6, label %4

4:                                                ; preds = %2
  %5 = tail call i32 @av_strncasecmp(ptr noundef %1, ptr noundef nonnull @.str.102, i64 noundef 7) #15
  %.not14 = icmp eq i32 %5, 0
  br i1 %.not14, label %6, label %20

6:                                                ; preds = %4, %2
  %7 = getelementptr inbounds nuw i8, ptr %0, i64 16
  %8 = load ptr, ptr %7, align 8, !tbaa !4
  %9 = getelementptr inbounds nuw i8, ptr %8, i64 10184
  store i32 1, ptr %9, align 8, !tbaa !78
  %10 = getelementptr inbounds nuw i8, ptr %8, i64 10192
  %11 = tail call i32 @inflateEnd(ptr noundef nonnull %10) #15
  %12 = tail call i32 @inflateInit2_(ptr noundef nonnull %10, i32 noundef 47, ptr noundef nonnull @.str.103, i32 noundef 112) #15
  %.not15 = icmp eq i32 %12, 0
  br i1 %.not15, label %16, label %13

13:                                               ; preds = %6
  %14 = getelementptr inbounds nuw i8, ptr %8, i64 10240
  %15 = load ptr, ptr %14, align 8, !tbaa !126
  tail call void (ptr, i32, ptr, ...) @av_log(ptr noundef nonnull %0, i32 noundef 24, ptr noundef nonnull @.str.104, ptr noundef %15) #15
  br label %.thread

16:                                               ; preds = %6
  %17 = tail call i64 @zlibCompileFlags() #15
  %18 = and i64 %17, 131072
  %.not16 = icmp eq i64 %18, 0
  br i1 %.not16, label %.thread, label %19

19:                                               ; preds = %16
  tail call void (ptr, i32, ptr, ...) @av_log(ptr noundef nonnull %0, i32 noundef 24, ptr noundef nonnull @.str.105) #15
  br label %.thread

20:                                               ; preds = %4
  %21 = tail call i32 @av_strncasecmp(ptr noundef %1, ptr noundef nonnull @.str.106, i64 noundef 8) #15
  %.not17 = icmp eq i32 %21, 0
  br i1 %.not17, label %.thread, label %22

22:                                               ; preds = %20
  tail call void (ptr, i32, ptr, ...) @av_log(ptr noundef %0, i32 noundef 24, ptr noundef nonnull @.str.107, ptr noundef %1) #15
  br label %.thread

.thread:                                          ; preds = %19, %13, %20, %22, %16
  %.1 = phi i32 [ 0, %16 ], [ 0, %22 ], [ 0, %20 ], [ -38, %13 ], [ -38, %19 ]
  ret i32 %.1
}